; ModuleID = '31/215.c'
source_filename = "31/215.c"
target datalayout = "e-m:e-p270:32:32-p271:32:32-p272:64:64-i64:64-f80:128-n8:16:32:64-S128"
target triple = "x86_64-pc-linux-gnu"

%struct.node = type { [100 x i8], [100 x i8], [100 x i8], [100 x i8], [100 x i8], [100 x i8], %struct.node*, %struct.node* }

@end = dso_local global [100 x i8] c"end\00\00\00\00\00\00\00\00\00\00\00\00\00\00\00\00\00\00\00\00\00\00\00\00\00\00\00\00\00\00\00\00\00\00\00\00\00\00\00\00\00\00\00\00\00\00\00\00\00\00\00\00\00\00\00\00\00\00\00\00\00\00\00\00\00\00\00\00\00\00\00\00\00\00\00\00\00\00\00\00\00\00\00\00\00\00\00\00\00\00\00\00\00\00\00\00\00", align 16
@.str = private unnamed_addr constant [3 x i8] c"%s\00", align 1
@.str.1 = private unnamed_addr constant [11 x i8] c"%s%s%s%s%s\00", align 1
@.str.2 = private unnamed_addr constant [19 x i8] c"%s %s %s %s %s %s\0A\00", align 1

; Function Attrs: noinline nounwind uwtable
define dso_local i32 @main() #0 {
  %1 = alloca i32, align 4
  %2 = alloca %struct.node*, align 8
  store i32 0, i32* %1, align 4
  %3 = call noalias i8* @malloc(i64 616) #4
  %4 = bitcast i8* %3 to %struct.node*
  store %struct.node* %4, %struct.node** %2, align 8
  %5 = load %struct.node*, %struct.node** %2, align 8
  %6 = getelementptr inbounds %struct.node, %struct.node* %5, i32 0, i32 7
  store %struct.node* null, %struct.node** %6, align 8
  br label %7

7:                                                ; preds = %0, %18
  %8 = load %struct.node*, %struct.node** %2, align 8
  %9 = getelementptr inbounds %struct.node, %struct.node* %8, i32 0, i32 0
  %10 = getelementptr inbounds [100 x i8], [100 x i8]* %9, i64 0, i64 0
  %11 = call i32 (i8*, ...) @__isoc99_scanf(i8* getelementptr inbounds ([3 x i8], [3 x i8]* @.str, i64 0, i64 0), i8* %10)
  %12 = load %struct.node*, %struct.node** %2, align 8
  %13 = getelementptr inbounds %struct.node, %struct.node* %12, i32 0, i32 0
  %14 = getelementptr inbounds [100 x i8], [100 x i8]* %13, i64 0, i64 0
  %15 = call i32 @strcmp(i8* %14, i8* getelementptr inbounds ([100 x i8], [100 x i8]* @end, i64 0, i64 0)) #5
  %16 = icmp eq i32 %15, 0
  br i1 %16, label %17, label %18

17:                                               ; preds = %7
  br label %47

18:                                               ; preds = %7
  %19 = load %struct.node*, %struct.node** %2, align 8
  %20 = getelementptr inbounds %struct.node, %struct.node* %19, i32 0, i32 1
  %21 = getelementptr inbounds [100 x i8], [100 x i8]* %20, i64 0, i64 0
  %22 = load %struct.node*, %struct.node** %2, align 8
  %23 = getelementptr inbounds %struct.node, %struct.node* %22, i32 0, i32 2
  %24 = getelementptr inbounds [100 x i8], [100 x i8]* %23, i64 0, i64 0
  %25 = load %struct.node*, %struct.node** %2, align 8
  %26 = getelementptr inbounds %struct.node, %struct.node* %25, i32 0, i32 3
  %27 = getelementptr inbounds [100 x i8], [100 x i8]* %26, i64 0, i64 0
  %28 = load %struct.node*, %struct.node** %2, align 8
  %29 = getelementptr inbounds %struct.node, %struct.node* %28, i32 0, i32 4
  %30 = getelementptr inbounds [100 x i8], [100 x i8]* %29, i64 0, i64 0
  %31 = load %struct.node*, %struct.node** %2, align 8
  %32 = getelementptr inbounds %struct.node, %struct.node* %31, i32 0, i32 5
  %33 = getelementptr inbounds [100 x i8], [100 x i8]* %32, i64 0, i64 0
  %34 = call i32 (i8*, ...) @__isoc99_scanf(i8* getelementptr inbounds ([11 x i8], [11 x i8]* @.str.1, i64 0, i64 0), i8* %21, i8* %24, i8* %27, i8* %30, i8* %33)
  %35 = call noalias i8* @malloc(i64 616) #4
  %36 = bitcast i8* %35 to %struct.node*
  %37 = load %struct.node*, %struct.node** %2, align 8
  %38 = getelementptr inbounds %struct.node, %struct.node* %37, i32 0, i32 6
  store %struct.node* %36, %struct.node** %38, align 8
  %39 = load %struct.node*, %struct.node** %2, align 8
  %40 = load %struct.node*, %struct.node** %2, align 8
  %41 = getelementptr inbounds %struct.node, %struct.node* %40, i32 0, i32 6
  %42 = load %struct.node*, %struct.node** %41, align 8
  %43 = getelementptr inbounds %struct.node, %struct.node* %42, i32 0, i32 7
  store %struct.node* %39, %struct.node** %43, align 8
  %44 = load %struct.node*, %struct.node** %2, align 8
  %45 = getelementptr inbounds %struct.node, %struct.node* %44, i32 0, i32 6
  %46 = load %struct.node*, %struct.node** %45, align 8
  store %struct.node* %46, %struct.node** %2, align 8
  br label %7

47:                                               ; preds = %17
  %48 = load %struct.node*, %struct.node** %2, align 8
  %49 = getelementptr inbounds %struct.node, %struct.node* %48, i32 0, i32 7
  %50 = load %struct.node*, %struct.node** %49, align 8
  store %struct.node* %50, %struct.node** %2, align 8
  %51 = load %struct.node*, %struct.node** %2, align 8
  %52 = getelementptr inbounds %struct.node, %struct.node* %51, i32 0, i32 6
  %53 = load %struct.node*, %struct.node** %52, align 8
  %54 = bitcast %struct.node* %53 to i8*
  call void @free(i8* %54) #4
  br label %55

55:                                               ; preds = %88, %47
  %56 = load %struct.node*, %struct.node** %2, align 8
  %57 = icmp ne %struct.node* %56, null
  br i1 %57, label %58, label %89

58:                                               ; preds = %55
  %59 = load %struct.node*, %struct.node** %2, align 8
  %60 = getelementptr inbounds %struct.node, %struct.node* %59, i32 0, i32 0
  %61 = getelementptr inbounds [100 x i8], [100 x i8]* %60, i64 0, i64 0
  %62 = load %struct.node*, %struct.node** %2, align 8
  %63 = getelementptr inbounds %struct.node, %struct.node* %62, i32 0, i32 1
  %64 = getelementptr inbounds [100 x i8], [100 x i8]* %63, i64 0, i64 0
  %65 = load %struct.node*, %struct.node** %2, align 8
  %66 = getelementptr inbounds %struct.node, %struct.node* %65, i32 0, i32 2
  %67 = getelementptr inbounds [100 x i8], [100 x i8]* %66, i64 0, i64 0
  %68 = load %struct.node*, %struct.node** %2, align 8
  %69 = getelementptr inbounds %struct.node, %struct.node* %68, i32 0, i32 3
  %70 = getelementptr inbounds [100 x i8], [100 x i8]* %69, i64 0, i64 0
  %71 = load %struct.node*, %struct.node** %2, align 8
  %72 = getelementptr inbounds %struct.node, %struct.node* %71, i32 0, i32 4
  %73 = getelementptr inbounds [100 x i8], [100 x i8]* %72, i64 0, i64 0
  %74 = load %struct.node*, %struct.node** %2, align 8
  %75 = getelementptr inbounds %struct.node, %struct.node* %74, i32 0, i32 5
  %76 = getelementptr inbounds [100 x i8], [100 x i8]* %75, i64 0, i64 0
  %77 = call i32 (i8*, ...) @printf(i8* getelementptr inbounds ([19 x i8], [19 x i8]* @.str.2, i64 0, i64 0), i8* %61, i8* %64, i8* %67, i8* %70, i8* %73, i8* %76)
  %78 = load %struct.node*, %struct.node** %2, align 8
  %79 = getelementptr inbounds %struct.node, %struct.node* %78, i32 0, i32 7
  %80 = load %struct.node*, %struct.node** %79, align 8
  store %struct.node* %80, %struct.node** %2, align 8
  %81 = load %struct.node*, %struct.node** %2, align 8
  %82 = icmp ne %struct.node* %81, null
  br i1 %82, label %83, label %88

83:                                               ; preds = %58
  %84 = load %struct.node*, %struct.node** %2, align 8
  %85 = getelementptr inbounds %struct.node, %struct.node* %84, i32 0, i32 6
  %86 = load %struct.node*, %struct.node** %85, align 8
  %87 = bitcast %struct.node* %86 to i8*
  call void @free(i8* %87) #4
  br label %88

88:                                               ; preds = %83, %58
  br label %55

89:                                               ; preds = %55
  ret i32 0
}

; Function Attrs: nounwind
declare dso_local noalias i8* @malloc(i64) #1

declare dso_local i32 @__isoc99_scanf(i8*, ...) #2

; Function Attrs: nounwind readonly
declare dso_local i32 @strcmp(i8*, i8*) #3

; Function Attrs: nounwind
declare dso_local void @free(i8*) #1

declare dso_local i32 @printf(i8*, ...) #2


!llvm.module.flags = !{!0}
!llvm.ident = !{!1}

!0 = !{i32 1, !"wchar_size", i32 4}
!1 = !{!"clang version 10.0.0-4ubuntu1 "}
